target datalayout = "e-m:e-p270:32:32-p271:32:32-p272:64:64-i64:64-i128:128-f80:128-n8:16:32:64-S128"
target triple = "x86_64-unknown-linux-gnu"

%"class.std::chrono::duration" = type { i64 }
%"class.proxygen::SessionPool" = type { %"class.proxygen::SessionHolder::Callback", ptr, i32, %"class.std::chrono::duration", %"class.std::chrono::duration", %"class.boost::intrusive::list", %"class.boost::intrusive::list", %"class.boost::intrusive::list", ptr, ptr, ptr }
%"class.proxygen::SessionHolder::Callback" = type { ptr }
%"class.boost::intrusive::list" = type { %"class.boost::intrusive::list_impl" }
%"class.boost::intrusive::list_impl" = type { %"struct.boost::intrusive::list_impl<boost::intrusive::mhtraits<proxygen::SessionHolder, boost::intrusive::list_member_hook<boost::intrusive::link_mode<boost::intrusive::safe_link>>, &proxygen::SessionHolder::listHook>, unsigned long, true, void>::data_t" }
%"struct.boost::intrusive::list_impl<boost::intrusive::mhtraits<proxygen::SessionHolder, boost::intrusive::list_member_hook<boost::intrusive::link_mode<boost::intrusive::safe_link>>, &proxygen::SessionHolder::listHook>, unsigned long, true, void>::data_t" = type { %"struct.boost::intrusive::list_impl<boost::intrusive::mhtraits<proxygen::SessionHolder, boost::intrusive::list_member_hook<boost::intrusive::link_mode<boost::intrusive::safe_link>>, &proxygen::SessionHolder::listHook>, unsigned long, true, void>::root_plus_size" }
%"struct.boost::intrusive::list_impl<boost::intrusive::mhtraits<proxygen::SessionHolder, boost::intrusive::list_member_hook<boost::intrusive::link_mode<boost::intrusive::safe_link>>, &proxygen::SessionHolder::listHook>, unsigned long, true, void>::root_plus_size" = type { %"struct.boost::intrusive::detail::size_holder", %"struct.boost::intrusive::detail::default_header_holder" }
%"struct.boost::intrusive::detail::size_holder" = type { i64 }
%"struct.boost::intrusive::detail::default_header_holder" = type { %"struct.boost::intrusive::list_node" }
%"struct.boost::intrusive::list_node" = type { ptr, ptr }

; Function Attrs: noreturn nounwind uwtable
define linkonce_odr hidden void @__clang_call_terminate(ptr noundef %0) #7 comdat {
  %2 = call ptr @__cxa_begin_catch(ptr %0) #3
  call void @_ZSt9terminatev() #15
  unreachable
}

; Function Attrs: mustprogress nounwind uwtable
define linkonce_odr void @_ZN5boost9intrusive24circular_list_algorithmsINS0_16list_node_traitsIPvEEE11link_beforeEPNS0_9list_nodeIS3_EES8_(ptr noundef %nxt_node, ptr noundef %this_node) #5 comdat align 2 {
entry:
  %n.addr.i7 = alloca ptr, align 8
  %n.addr.i4 = alloca ptr, align 8
  %prev.addr.i5 = alloca ptr, align 8
  %n.addr.i3 = alloca ptr, align 8
  %prev.addr.i = alloca ptr, align 8
  %n.addr.i1 = alloca ptr, align 8
  %next.addr.i2 = alloca ptr, align 8
  %n.addr.i = alloca ptr, align 8
  %next.addr.i = alloca ptr, align 8
  %nxt_node.addr = alloca ptr, align 8
  %this_node.addr = alloca ptr, align 8
  %prev = alloca ptr, align 8
  store ptr %nxt_node, ptr %nxt_node.addr, align 8
  store ptr %this_node, ptr %this_node.addr, align 8
  %0 = load ptr, ptr %nxt_node.addr, align 8
  store ptr %0, ptr %n.addr.i7, align 8
  %1 = load ptr, ptr %n.addr.i7, align 8
  %prev_.i8 = getelementptr inbounds %"struct.boost::intrusive::list_node", ptr %1, i32 0, i32 1
  %2 = load ptr, ptr %prev_.i8, align 8
  store ptr %2, ptr %prev, align 8
  %3 = load ptr, ptr %this_node.addr, align 8
  %4 = load ptr, ptr %prev, align 8
  store ptr %3, ptr %n.addr.i4, align 8
  store ptr %4, ptr %prev.addr.i5, align 8
  %5 = load ptr, ptr %prev.addr.i5, align 8
  %6 = load ptr, ptr %n.addr.i4, align 8
  %prev_.i6 = getelementptr inbounds %"struct.boost::intrusive::list_node", ptr %6, i32 0, i32 1
  store ptr %5, ptr %prev_.i6, align 8
  %7 = load ptr, ptr %this_node.addr, align 8
  %8 = load ptr, ptr %nxt_node.addr, align 8
  store ptr %7, ptr %n.addr.i1, align 8
  store ptr %8, ptr %next.addr.i2, align 8
  %9 = load ptr, ptr %next.addr.i2, align 8
  %10 = load ptr, ptr %n.addr.i1, align 8
  store ptr %9, ptr %10, align 8
  %11 = load ptr, ptr %nxt_node.addr, align 8
  %12 = load ptr, ptr %this_node.addr, align 8
  store ptr %11, ptr %n.addr.i3, align 8
  store ptr %12, ptr %prev.addr.i, align 8
  %13 = load ptr, ptr %prev.addr.i, align 8
  %14 = load ptr, ptr %n.addr.i3, align 8
  %prev_.i = getelementptr inbounds %"struct.boost::intrusive::list_node", ptr %14, i32 0, i32 1
  store ptr %13, ptr %prev_.i, align 8
  %15 = load ptr, ptr %prev, align 8
  %16 = load ptr, ptr %this_node.addr, align 8
  store ptr %15, ptr %n.addr.i, align 8
  store ptr %16, ptr %next.addr.i, align 8
  %17 = load ptr, ptr %next.addr.i, align 8
  %18 = load ptr, ptr %n.addr.i, align 8
  store ptr %17, ptr %18, align 8
  ret void
}

; Function Attrs: mustprogress nounwind uwtable
define linkonce_odr void @_ZN5boost9intrusive9list_implINS0_8mhtraitsIN8proxygen13SessionHolderENS0_16list_member_hookIJNS0_9link_modeILNS0_14link_mode_typeE1EEEEEEXadL_ZNS4_8listHookEEEEEmLb1EvE9push_backERS4_(ptr noundef nonnull align 8 dereferenceable(24) %this, ptr noundef nonnull align 8 dereferenceable(152) %value) #5 comdat align 2 personality ptr @__gxx_personality_v0 {
entry:
  %this.addr.i13 = alloca ptr, align 8
  %v.addr.i.i = alloca ptr, align 8
  %r.addr.i.i = alloca ptr, align 8
  %value.addr.i = alloca ptr, align 8
  %v.addr.i = alloca ptr, align 8
  %r.addr.i = alloca ptr, align 8
  %this.addr.i10 = alloca ptr, align 8
  %this.addr.i8 = alloca ptr, align 8
  %this.addr.i6 = alloca ptr, align 8
  %this.addr.i = alloca ptr, align 8
  %this.addr = alloca ptr, align 8
  %value.addr = alloca ptr, align 8
  %to_insert = alloca ptr, align 8
  store ptr %this, ptr %this.addr, align 8
  store ptr %value, ptr %value.addr, align 8
  %this1 = load ptr, ptr %this.addr, align 8
  store ptr %this1, ptr %this.addr.i6, align 8
  %0 = load ptr, ptr %value.addr, align 8
  store ptr %0, ptr %value.addr.i, align 8
  %1 = load ptr, ptr %value.addr.i, align 8
  %memptr.offset.i = getelementptr inbounds i8, ptr %1, i64 8
  store ptr %memptr.offset.i, ptr %r.addr.i.i, align 8
  %2 = load ptr, ptr %r.addr.i.i, align 8
  store ptr %2, ptr %v.addr.i.i, align 8
  %3 = load ptr, ptr %v.addr.i.i, align 8
  store ptr %3, ptr %to_insert, align 8
  store ptr %this1, ptr %this.addr.i, align 8
  %this1.i = load ptr, ptr %this.addr.i, align 8
  %m_header.i = getelementptr inbounds %"struct.boost::intrusive::list_impl<boost::intrusive::mhtraits<proxygen::SessionHolder, boost::intrusive::list_member_hook<boost::intrusive::link_mode<boost::intrusive::safe_link>>, &proxygen::SessionHolder::listHook>, unsigned long, true, void>::root_plus_size", ptr %this1.i, i32 0, i32 1
  store ptr %m_header.i, ptr %this.addr.i10, align 8
  %this1.i11 = load ptr, ptr %this.addr.i10, align 8
  store ptr %this1.i11, ptr %r.addr.i, align 8
  %4 = load ptr, ptr %r.addr.i, align 8
  store ptr %4, ptr %v.addr.i, align 8
  %5 = load ptr, ptr %v.addr.i, align 8
  br label %invoke.cont

invoke.cont:                                      ; preds = %entry
  %6 = load ptr, ptr %to_insert, align 8
  call void @_ZN5boost9intrusive24circular_list_algorithmsINS0_16list_node_traitsIPvEEE11link_beforeEPNS0_9list_nodeIS3_EES8_(ptr noundef %5, ptr noundef %6) #3
  store ptr %this1, ptr %this.addr.i8, align 8
  %this1.i9 = load ptr, ptr %this.addr.i8, align 8
  store ptr %this1.i9, ptr %this.addr.i13, align 8
  %this1.i14 = load ptr, ptr %this.addr.i13, align 8
  %7 = load i64, ptr %this1.i14, align 8
  %inc.i = add i64 %7, 1
  store i64 %inc.i, ptr %this1.i14, align 8
  br label %invoke.cont5

invoke.cont5:                                     ; preds = %invoke.cont
  ret void

terminate.lpad:                                   ; No predecessors!
  %8 = landingpad { ptr, i32 }
          catch ptr null
  %9 = extractvalue { ptr, i32 } %8, 0
  call void @__clang_call_terminate(ptr %9) #15
  unreachable
}

; Function Attrs: mustprogress nounwind uwtable
define void @_ZN8proxygen11SessionPool21attachPartiallyFilledEPNS_13SessionHolderE(ptr noundef nonnull align 8 dereferenceable(136) %this, ptr noundef %sess) unnamed_addr #5 align 2 {
entry:
  %this.addr = alloca ptr, align 8
  %sess.addr = alloca ptr, align 8
  store ptr %this, ptr %this.addr, align 8
  store ptr %sess, ptr %sess.addr, align 8
  %this1 = load ptr, ptr %this.addr, align 8
  %unfilledSessionList_ = getelementptr inbounds %"class.proxygen::SessionPool", ptr %this1, i32 0, i32 6
  %0 = load ptr, ptr %sess.addr, align 8
  call void @_ZN5boost9intrusive9list_implINS0_8mhtraitsIN8proxygen13SessionHolderENS0_16list_member_hookIJNS0_9link_modeILNS0_14link_mode_typeE1EEEEEEXadL_ZNS4_8listHookEEEEEmLb1EvE9push_backERS4_(ptr noundef nonnull align 8 dereferenceable(24) %unfilledSessionList_, ptr noundef nonnull align 8 dereferenceable(152) %0) #3
  ret void
}