; Function Attrs: mustprogress nofree norecurse nosync nounwind willreturn memory(write, argmem: readwrite, inaccessiblemem: none) uwtable
define void @_ZN8proxygen11SessionPool21attachPartiallyFilledEPNS_13SessionHolderE(ptr noundef nonnull align 8 dereferenceable(136) %this, ptr noundef %sess) unnamed_addr #11 align 2 personality ptr @__gxx_personality_v0 {
entry:
  %unfilledSessionList_ = getelementptr inbounds i8, ptr %this, i64 64
  %memptr.offset.i.i = getelementptr inbounds i8, ptr %sess, i64 8
  %m_header.i.i = getelementptr inbounds i8, ptr %this, i64 72
  %prev_.i8.i.i = getelementptr inbounds i8, ptr %this, i64 80
  %0 = load ptr, ptr %prev_.i8.i.i, align 8
  %prev_.i6.i.i = getelementptr inbounds i8, ptr %sess, i64 16
  store ptr %0, ptr %prev_.i6.i.i, align 8
  store ptr %m_header.i.i, ptr %memptr.offset.i.i, align 8
  store ptr %memptr.offset.i.i, ptr %prev_.i8.i.i, align 8
  store ptr %memptr.offset.i.i, ptr %0, align 8
  %1 = load i64, ptr %unfilledSessionList_, align 8
  %inc.i.i = add i64 %1, 1
  store i64 %inc.i.i, ptr %unfilledSessionList_, align 8
  ret void
}